   1               		.file	"gun_controller_uc.c"
   2               	__SREG__ = 0x3f
   3               	__SP_H__ = 0x3e
   4               	__SP_L__ = 0x3d
   5               	__CCP__  = 0x34
   6               	__tmp_reg__ = 0
   7               	__zero_reg__ = 1
  15               	.Ltext0:
  16               		.section	.text.packData,"ax",@progbits
  17               	.global	packData
  19               	packData:
  20               	.LFB7:
  21               	.LSM0:
  22               	/* prologue: function */
  23               	/* frame size = 0 */
  24               	.LSM1:
  25 0000 A0E0      		ldi r26,lo8(buffer)
  26 0002 B0E0      		ldi r27,hi8(buffer)
  27 0004 86E6      		ldi r24,lo8(102)
  28 0006 8093 0000 		sts buffer,r24
  29               	.LSM2:
  30 000a 8093 0000 		sts buffer+1,r24
  31               	.LSM3:
  32 000e 81E0      		ldi r24,lo8(1)
  33 0010 8093 0000 		sts buffer+2,r24
  34               	.LSM4:
  35 0014 E0E0      		ldi r30,lo8(data)
  36 0016 F0E0      		ldi r31,hi8(data)
  37 0018 9091 0000 		lds r25,data
  38 001c 8091 0000 		lds r24,data+1
  39 0020 8093 0000 		sts buffer+3,r24
  40               	.LSM5:
  41 0024 9093 0000 		sts buffer+4,r25
  42               	.LSM6:
  43 0028 82E0      		ldi r24,lo8(2)
  44 002a 8093 0000 		sts buffer+5,r24
  45               	.LSM7:
  46 002e 9091 0000 		lds r25,data+2
  47 0032 8381      		ldd r24,Z+3
  48 0034 8093 0000 		sts buffer+6,r24
  49               	.LSM8:
  50 0038 9093 0000 		sts buffer+7,r25
  51               	.LSM9:
  52 003c 83E0      		ldi r24,lo8(3)
  53 003e 8093 0000 		sts buffer+8,r24
  54               	.LSM10:
  55 0042 9091 0000 		lds r25,data+4
  56 0046 8581      		ldd r24,Z+5
  57 0048 8093 0000 		sts buffer+9,r24
  58               	.LSM11:
  59 004c 9093 0000 		sts buffer+10,r25
  60               	.LSM12:
  61 0050 84E0      		ldi r24,lo8(4)
  62 0052 8093 0000 		sts buffer+11,r24
  63               	.LSM13:
  64 0056 9091 0000 		lds r25,data+6
  65 005a 8781      		ldd r24,Z+7
  66 005c 8093 0000 		sts buffer+12,r24
  67               	.LSM14:
  68 0060 9093 0000 		sts buffer+13,r25
  69               	.LSM15:
  70 0064 85E0      		ldi r24,lo8(5)
  71 0066 8093 0000 		sts buffer+14,r24
  72               	.LSM16:
  73 006a 9091 0000 		lds r25,data+8
  74 006e 8185      		ldd r24,Z+9
  75 0070 8093 0000 		sts buffer+15,r24
  76               	.LSM17:
  77 0074 9093 0000 		sts buffer+16,r25
  78               	.LSM18:
  79 0078 86E0      		ldi r24,lo8(6)
  80 007a 8093 0000 		sts buffer+17,r24
  81               	.LSM19:
  82 007e 9091 0000 		lds r25,data+10
  83 0082 8385      		ldd r24,Z+11
  84 0084 8093 0000 		sts buffer+18,r24
  85               	.LSM20:
  86 0088 9093 0000 		sts buffer+19,r25
  87               	.LSM21:
  88 008c 87E0      		ldi r24,lo8(7)
  89 008e 8093 0000 		sts buffer+20,r24
  90               	.LSM22:
  91 0092 9091 0000 		lds r25,data+12
  92 0096 8585      		ldd r24,Z+13
  93 0098 8093 0000 		sts buffer+21,r24
  94               	.LSM23:
  95 009c 9093 0000 		sts buffer+22,r25
  96               	.LSM24:
  97 00a0 88E0      		ldi r24,lo8(8)
  98 00a2 8093 0000 		sts buffer+23,r24
  99               	.LSM25:
 100 00a6 9091 0000 		lds r25,data+14
 101 00aa 8785      		ldd r24,Z+15
 102 00ac 8093 0000 		sts buffer+24,r24
 103               	.LSM26:
 104 00b0 9093 0000 		sts buffer+25,r25
 105               	.LSM27:
 106 00b4 89E0      		ldi r24,lo8(9)
 107 00b6 8093 0000 		sts buffer+26,r24
 108               	.LSM28:
 109 00ba 9091 0000 		lds r25,data+16
 110 00be 8189      		ldd r24,Z+17
 111 00c0 8093 0000 		sts buffer+27,r24
 112               	.LSM29:
 113 00c4 9093 0000 		sts buffer+28,r25
 114               	.LSM30:
 115 00c8 8AE0      		ldi r24,lo8(10)
 116 00ca 8093 0000 		sts buffer+29,r24
 117               	.LSM31:
 118 00ce 9091 0000 		lds r25,data+18
 119 00d2 8389      		ldd r24,Z+19
 120 00d4 8093 0000 		sts buffer+30,r24
 121               	.LSM32:
 122 00d8 9093 0000 		sts buffer+31,r25
 123               	.LSM33:
 124 00dc 8BE0      		ldi r24,lo8(11)
 125 00de 8093 0000 		sts buffer+32,r24
 126               	.LSM34:
 127 00e2 9091 0000 		lds r25,data+20
 128 00e6 8589      		ldd r24,Z+21
 129 00e8 8093 0000 		sts buffer+33,r24
 130               	.LSM35:
 131 00ec 9093 0000 		sts buffer+34,r25
 132               	.LSM36:
 133 00f0 8CE0      		ldi r24,lo8(12)
 134 00f2 8093 0000 		sts buffer+35,r24
 135               	.LSM37:
 136 00f6 9091 0000 		lds r25,data+22
 137 00fa 8789      		ldd r24,Z+23
 138 00fc 8093 0000 		sts buffer+36,r24
 139               	.LSM38:
 140 0100 9093 0000 		sts buffer+37,r25
 141               	.LSM39:
 142 0104 8DE0      		ldi r24,lo8(13)
 143 0106 8093 0000 		sts buffer+38,r24
 144               	.LSM40:
 145 010a 9091 0000 		lds r25,data+24
 146 010e 818D      		ldd r24,Z+25
 147 0110 8093 0000 		sts buffer+39,r24
 148               	.LSM41:
 149 0114 9093 0000 		sts buffer+40,r25
 150               	.LSM42:
 151 0118 8EE0      		ldi r24,lo8(14)
 152 011a 8093 0000 		sts buffer+41,r24
 153               	.LSM43:
 154 011e 9091 0000 		lds r25,data+26
 155 0122 838D      		ldd r24,Z+27
 156 0124 8093 0000 		sts buffer+42,r24
 157               	.LSM44:
 158 0128 9093 0000 		sts buffer+43,r25
 159               	.LSM45:
 160 012c 8FE0      		ldi r24,lo8(15)
 161 012e 8093 0000 		sts buffer+44,r24
 162               	.LSM46:
 163 0132 9091 0000 		lds r25,data+28
 164 0136 858D      		ldd r24,Z+29
 165 0138 8093 0000 		sts buffer+45,r24
 166               	.LSM47:
 167 013c 9093 0000 		sts buffer+46,r25
 168               	.LSM48:
 169 0140 80E1      		ldi r24,lo8(16)
 170 0142 8093 0000 		sts buffer+47,r24
 171               	.LSM49:
 172 0146 9091 0000 		lds r25,data+30
 173 014a 878D      		ldd r24,Z+31
 174 014c 8093 0000 		sts buffer+48,r24
 175               	.LSM50:
 176 0150 9093 0000 		sts buffer+49,r25
 177               	.LSM51:
 178 0154 81E1      		ldi r24,lo8(17)
 179 0156 8093 0000 		sts buffer+50,r24
 180               	.LSM52:
 181 015a 9091 0000 		lds r25,data+32
 182 015e 81A1      		ldd r24,Z+33
 183 0160 8093 0000 		sts buffer+51,r24
 184               	.LSM53:
 185 0164 9093 0000 		sts buffer+52,r25
 186               	.LSM54:
 187 0168 82E1      		ldi r24,lo8(18)
 188 016a 8093 0000 		sts buffer+53,r24
 189               	.LSM55:
 190 016e 9091 0000 		lds r25,data+34
 191 0172 83A1      		ldd r24,Z+35
 192 0174 8093 0000 		sts buffer+54,r24
 193               	.LSM56:
 194 0178 9093 0000 		sts buffer+55,r25
 195               	.LSM57:
 196 017c 83E1      		ldi r24,lo8(19)
 197 017e 8093 0000 		sts buffer+56,r24
 198               	.LSM58:
 199 0182 9091 0000 		lds r25,data+36
 200 0186 85A1      		ldd r24,Z+37
 201 0188 8093 0000 		sts buffer+57,r24
 202               	.LSM59:
 203 018c 9093 0000 		sts buffer+58,r25
 204               	.LSM60:
 205 0190 84E1      		ldi r24,lo8(20)
 206 0192 8093 0000 		sts buffer+59,r24
 207               	.LSM61:
 208 0196 9091 0000 		lds r25,data+38
 209 019a 87A1      		ldd r24,Z+39
 210 019c 8093 0000 		sts buffer+60,r24
 211               	.LSM62:
 212 01a0 DD96      		adiw r26,61
 213 01a2 9C93      		st X,r25
 214 01a4 DD97      		sbiw r26,61
 215               	.LSM63:
 216 01a6 82E4      		ldi r24,lo8(66)
 217 01a8 DE96      		adiw r26,62
 218 01aa 8C93      		st X,r24
 219 01ac DE97      		sbiw r26,62
 220               	.LSM64:
 221 01ae DF96      		adiw r26,63
 222 01b0 8C93      		st X,r24
 223               	/* epilogue start */
 224               	.LSM65:
 225 01b2 0895      		ret
 226               	.LFE7:
 228               		.section	.text.read_buttons,"ax",@progbits
 229               	.global	read_buttons
 231               	read_buttons:
 232               	.LFB9:
 233               	.LSM66:
 234 0000 4F92      		push r4
 235 0002 5F92      		push r5
 236 0004 6F92      		push r6
 237 0006 7F92      		push r7
 238 0008 8F92      		push r8
 239 000a 9F92      		push r9
 240 000c AF92      		push r10
 241 000e BF92      		push r11
 242 0010 CF92      		push r12
 243 0012 DF92      		push r13
 244 0014 EF92      		push r14
 245 0016 FF92      		push r15
 246 0018 0F93      		push r16
 247 001a 1F93      		push r17
 248 001c CF93      		push r28
 249 001e DF93      		push r29
 250               	/* prologue: function */
 251               	/* frame size = 0 */
 252               	.LSM67:
 253 0020 7090 0000 		lds r7,digital_d
 254 0024 8090 0000 		lds r8,digital_c
 255 0028 20E0      		ldi r18,lo8(old_d.1713)
 256 002a C22E      		mov r12,r18
 257 002c 20E0      		ldi r18,hi8(old_d.1713)
 258 002e D22E      		mov r13,r18
 259 0030 90E0      		ldi r25,lo8(flag_c.1715)
 260 0032 E92E      		mov r14,r25
 261 0034 90E0      		ldi r25,hi8(flag_c.1715)
 262 0036 F92E      		mov r15,r25
 263 0038 00E0      		ldi r16,lo8(old_c.1716)
 264 003a 10E0      		ldi r17,hi8(old_c.1716)
 265 003c C0E0      		ldi r28,lo8(flag_d.1712)
 266 003e D0E0      		ldi r29,hi8(flag_d.1712)
 267 0040 AA24      		clr r10
 268 0042 BB24      		clr r11
 269               	.LSM68:
 270 0044 81E0      		ldi r24,lo8(1)
 271 0046 482E      		mov r4,r24
 272 0048 512C      		mov r5,__zero_reg__
 273               	.LSM69:
 274 004a 6624      		clr r6
 275 004c 6394      		inc r6
 276               	.L10:
 277               	.LSM70:
 278 004e 9A2C      		mov r9,r10
 279               	.LSM71:
 280 0050 F601      		movw r30,r12
 281 0052 6081      		ld r22,Z
 282 0054 70E0      		ldi r23,lo8(0)
 283 0056 8827      		clr r24
 284 0058 77FD      		sbrc r23,7
 285 005a 8095      		com r24
 286 005c 982F      		mov r25,r24
 287 005e 0E94 0000 		call __floatsisf
 288 0062 20E0      		ldi r18,lo8(0x3f400000)
 289 0064 30E0      		ldi r19,hi8(0x3f400000)
 290 0066 40E4      		ldi r20,hlo8(0x3f400000)
 291 0068 5FE3      		ldi r21,hhi8(0x3f400000)
 292 006a 0E94 0000 		call __mulsf3
 293 006e 0E94 0000 		call __fixunssfsi
 294 0072 262F      		mov r18,r22
 295 0074 F601      		movw r30,r12
 296 0076 6083      		st Z,r22
 297               	.LSM72:
 298 0078 89B1      		in r24,41-32
 299 007a 90E0      		ldi r25,lo8(0)
 300 007c 0A2C      		mov r0,r10
 301 007e 00C0      		rjmp 2f
 302 0080 9595      	1:	asr r25
 303 0082 8795      		ror r24
 304 0084 0A94      	2:	dec r0
 305 0086 02F4      		brpl 1b
 306 0088 80FD      		sbrc r24,0
 307 008a 00C0      		rjmp .L4
 308 008c 215C      		subi r18,lo8(-(63))
 309 008e 2083      		st Z,r18
 310               	.L4:
 311               	.LSM73:
 312 0090 F601      		movw r30,r12
 313 0092 8081      		ld r24,Z
 314 0094 813F      		cpi r24,lo8(-15)
 315 0096 00F0      		brlo .L5
 316 0098 8881      		ld r24,Y
 317 009a 8823      		tst r24
 318 009c 01F4      		brne .L6
 319 009e 6882      		st Y,r6
 320 00a0 C201      		movw r24,r4
 321 00a2 092C      		mov r0,r9
 322 00a4 00C0      		rjmp 2f
 323 00a6 880F      	1:	lsl r24
 324 00a8 991F      		rol r25
 325 00aa 0A94      	2:	dec r0
 326 00ac 02F4      		brpl 1b
 327 00ae 8095      		com r24
 328 00b0 7822      		and r7,r24
 329 00b2 00C0      		rjmp .L6
 330               	.L5:
 331               	.LSM74:
 332 00b4 8F30      		cpi r24,lo8(15)
 333 00b6 00F4      		brsh .L6
 334 00b8 8881      		ld r24,Y
 335 00ba 8130      		cpi r24,lo8(1)
 336 00bc 01F4      		brne .L6
 337 00be 1882      		st Y,__zero_reg__
 338 00c0 C201      		movw r24,r4
 339 00c2 092C      		mov r0,r9
 340 00c4 00C0      		rjmp 2f
 341 00c6 880F      	1:	lsl r24
 342 00c8 991F      		rol r25
 343 00ca 0A94      	2:	dec r0
 344 00cc 02F4      		brpl 1b
 345 00ce 782A      		or r7,r24
 346               	.L6:
 347               	.LSM75:
 348 00d0 F801      		movw r30,r16
 349 00d2 6081      		ld r22,Z
 350 00d4 70E0      		ldi r23,lo8(0)
 351 00d6 8827      		clr r24
 352 00d8 77FD      		sbrc r23,7
 353 00da 8095      		com r24
 354 00dc 982F      		mov r25,r24
 355 00de 0E94 0000 		call __floatsisf
 356 00e2 20E0      		ldi r18,lo8(0x3f400000)
 357 00e4 30E0      		ldi r19,hi8(0x3f400000)
 358 00e6 40E4      		ldi r20,hlo8(0x3f400000)
 359 00e8 5FE3      		ldi r21,hhi8(0x3f400000)
 360 00ea 0E94 0000 		call __mulsf3
 361 00ee 0E94 0000 		call __fixunssfsi
 362 00f2 262F      		mov r18,r22
 363 00f4 F801      		movw r30,r16
 364 00f6 6083      		st Z,r22
 365               	.LSM76:
 366 00f8 86B1      		in r24,38-32
 367 00fa 90E0      		ldi r25,lo8(0)
 368 00fc 092C      		mov r0,r9
 369 00fe 00C0      		rjmp 2f
 370 0100 9595      	1:	asr r25
 371 0102 8795      		ror r24
 372 0104 0A94      	2:	dec r0
 373 0106 02F4      		brpl 1b
 374 0108 80FD      		sbrc r24,0
 375 010a 00C0      		rjmp .L7
 376 010c 215C      		subi r18,lo8(-(63))
 377 010e 2083      		st Z,r18
 378               	.L7:
 379               	.LSM77:
 380 0110 F801      		movw r30,r16
 381 0112 8081      		ld r24,Z
 382 0114 813F      		cpi r24,lo8(-15)
 383 0116 00F0      		brlo .L8
 384 0118 F701      		movw r30,r14
 385 011a 8081      		ld r24,Z
 386 011c 8823      		tst r24
 387 011e 01F4      		brne .L9
 388 0120 6082      		st Z,r6
 389 0122 C201      		movw r24,r4
 390 0124 00C0      		rjmp 2f
 391 0126 880F      	1:	lsl r24
 392 0128 991F      		rol r25
 393 012a 9A94      	2:	dec r9
 394 012c 02F4      		brpl 1b
 395 012e 8095      		com r24
 396 0130 8822      		and r8,r24
 397 0132 00C0      		rjmp .L9
 398               	.L8:
 399               	.LSM78:
 400 0134 8F30      		cpi r24,lo8(15)
 401 0136 00F4      		brsh .L9
 402 0138 F701      		movw r30,r14
 403 013a 8081      		ld r24,Z
 404 013c 8130      		cpi r24,lo8(1)
 405 013e 01F4      		brne .L9
 406 0140 1082      		st Z,__zero_reg__
 407 0142 C201      		movw r24,r4
 408 0144 00C0      		rjmp 2f
 409 0146 880F      	1:	lsl r24
 410 0148 991F      		rol r25
 411 014a 9A94      	2:	dec r9
 412 014c 02F4      		brpl 1b
 413 014e 882A      		or r8,r24
 414               	.L9:
 415 0150 0894      		sec
 416 0152 A11C      		adc r10,__zero_reg__
 417 0154 B11C      		adc r11,__zero_reg__
 418 0156 0894      		sec
 419 0158 C11C      		adc r12,__zero_reg__
 420 015a D11C      		adc r13,__zero_reg__
 421 015c 0894      		sec
 422 015e E11C      		adc r14,__zero_reg__
 423 0160 F11C      		adc r15,__zero_reg__
 424 0162 0F5F      		subi r16,lo8(-(1))
 425 0164 1F4F      		sbci r17,hi8(-(1))
 426 0166 2196      		adiw r28,1
 427               	.LSM79:
 428 0168 F8E0      		ldi r31,lo8(8)
 429 016a AF16      		cp r10,r31
 430 016c B104      		cpc r11,__zero_reg__
 431 016e 01F0      		breq .+2
 432 0170 00C0      		rjmp .L10
 433 0172 7092 0000 		sts digital_d,r7
 434 0176 8092 0000 		sts digital_c,r8
 435               	/* epilogue start */
 436               	.LSM80:
 437 017a DF91      		pop r29
 438 017c CF91      		pop r28
 439 017e 1F91      		pop r17
 440 0180 0F91      		pop r16
 441 0182 FF90      		pop r15
 442 0184 EF90      		pop r14
 443 0186 DF90      		pop r13
 444 0188 CF90      		pop r12
 445 018a BF90      		pop r11
 446 018c AF90      		pop r10
 447 018e 9F90      		pop r9
 448 0190 8F90      		pop r8
 449 0192 7F90      		pop r7
 450 0194 6F90      		pop r6
 451 0196 5F90      		pop r5
 452 0198 4F90      		pop r4
 453 019a 0895      		ret
 454               	.LFE9:
 456               		.section	.text.__vector_29,"ax",@progbits
 457               	.global	__vector_29
 459               	__vector_29:
 460               	.LFB10:
 461               	.LSM81:
 462 0000 1F92      		push __zero_reg__
 463 0002 0F92      		push r0
 464 0004 0FB6      		in r0,__SREG__
 465 0006 0F92      		push r0
 466 0008 0BB6      		in r0,91-32
 467 000a 0F92      		push r0
 468 000c 1124      		clr __zero_reg__
 469 000e AF92      		push r10
 470 0010 BF92      		push r11
 471 0012 CF92      		push r12
 472 0014 DF92      		push r13
 473 0016 EF92      		push r14
 474 0018 FF92      		push r15
 475 001a 0F93      		push r16
 476 001c 1F93      		push r17
 477 001e 2F93      		push r18
 478 0020 3F93      		push r19
 479 0022 4F93      		push r20
 480 0024 5F93      		push r21
 481 0026 6F93      		push r22
 482 0028 7F93      		push r23
 483 002a 8F93      		push r24
 484 002c 9F93      		push r25
 485 002e AF93      		push r26
 486 0030 BF93      		push r27
 487 0032 EF93      		push r30
 488 0034 FF93      		push r31
 489               	/* prologue: Signal */
 490               	/* frame size = 0 */
 491               	.LSM82:
 492 0036 A090 0000 		lds r10,conversion_status
 493 003a 81E0      		ldi r24,lo8(1)
 494 003c A816      		cp r10,r24
 495 003e 01F4      		brne .L14
 496               	.LSM83:
 497 0040 0091 7800 		lds r16,120
 498 0044 B090 7900 		lds r11,121
 499 0048 6091 0000 		lds r22,data+6
 500 004c 7091 0000 		lds r23,(data+6)+1
 501 0050 80E0      		ldi r24,lo8(0)
 502 0052 90E0      		ldi r25,hi8(0)
 503 0054 0E94 0000 		call __floatunsisf
 504 0058 2AE9      		ldi r18,lo8(0x3f19999a)
 505 005a 39E9      		ldi r19,hi8(0x3f19999a)
 506 005c 49E1      		ldi r20,hlo8(0x3f19999a)
 507 005e 5FE3      		ldi r21,hhi8(0x3f19999a)
 508 0060 0E94 0000 		call __mulsf3
 509 0064 6B01      		movw r12,r22
 510 0066 7C01      		movw r14,r24
 511 0068 7B2D      		mov r23,r11
 512 006a 60E0      		ldi r22,lo8(0)
 513 006c 10E0      		ldi r17,lo8(0)
 514 006e 602B      		or r22,r16
 515 0070 712B      		or r23,r17
 516 0072 8827      		clr r24
 517 0074 77FD      		sbrc r23,7
 518 0076 8095      		com r24
 519 0078 982F      		mov r25,r24
 520 007a 0E94 0000 		call __floatsisf
 521 007e 2CEC      		ldi r18,lo8(0x3ecccccc)
 522 0080 3CEC      		ldi r19,hi8(0x3ecccccc)
 523 0082 4CEC      		ldi r20,hlo8(0x3ecccccc)
 524 0084 5EE3      		ldi r21,hhi8(0x3ecccccc)
 525 0086 0E94 0000 		call __mulsf3
 526 008a 9B01      		movw r18,r22
 527 008c AC01      		movw r20,r24
 528 008e C701      		movw r24,r14
 529 0090 B601      		movw r22,r12
 530 0092 0E94 0000 		call __addsf3
 531 0096 0E94 0000 		call __fixunssfsi
 532 009a 7093 0000 		sts (data+6)+1,r23
 533 009e 6093 0000 		sts data+6,r22
 534 00a2 00C0      		rjmp .L28
 535               	.L14:
 536               	.LSM84:
 537 00a4 A090 0000 		lds r10,conversion_status
 538 00a8 82E0      		ldi r24,lo8(2)
 539 00aa A816      		cp r10,r24
 540 00ac 01F0      		breq .+2
 541 00ae 00C0      		rjmp .L16
 542               	.LSM85:
 543 00b0 0091 7800 		lds r16,120
 544 00b4 B090 7900 		lds r11,121
 545 00b8 6091 0000 		lds r22,data+8
 546 00bc 7091 0000 		lds r23,(data+8)+1
 547 00c0 80E0      		ldi r24,lo8(0)
 548 00c2 90E0      		ldi r25,hi8(0)
 549 00c4 0E94 0000 		call __floatunsisf
 550 00c8 2AE9      		ldi r18,lo8(0x3f19999a)
 551 00ca 39E9      		ldi r19,hi8(0x3f19999a)
 552 00cc 49E1      		ldi r20,hlo8(0x3f19999a)
 553 00ce 5FE3      		ldi r21,hhi8(0x3f19999a)
 554 00d0 0E94 0000 		call __mulsf3
 555 00d4 6B01      		movw r12,r22
 556 00d6 7C01      		movw r14,r24
 557 00d8 7B2D      		mov r23,r11
 558 00da 60E0      		ldi r22,lo8(0)
 559 00dc 10E0      		ldi r17,lo8(0)
 560 00de 602B      		or r22,r16
 561 00e0 712B      		or r23,r17
 562 00e2 8827      		clr r24
 563 00e4 77FD      		sbrc r23,7
 564 00e6 8095      		com r24
 565 00e8 982F      		mov r25,r24
 566 00ea 0E94 0000 		call __floatsisf
 567 00ee 2CEC      		ldi r18,lo8(0x3ecccccc)
 568 00f0 3CEC      		ldi r19,hi8(0x3ecccccc)
 569 00f2 4CEC      		ldi r20,hlo8(0x3ecccccc)
 570 00f4 5EE3      		ldi r21,hhi8(0x3ecccccc)
 571 00f6 0E94 0000 		call __mulsf3
 572 00fa 9B01      		movw r18,r22
 573 00fc AC01      		movw r20,r24
 574 00fe C701      		movw r24,r14
 575 0100 B601      		movw r22,r12
 576 0102 0E94 0000 		call __addsf3
 577 0106 0E94 0000 		call __fixunssfsi
 578 010a 7093 0000 		sts (data+8)+1,r23
 579 010e 6093 0000 		sts data+8,r22
 580               	.L28:
 581               	.LSM86:
 582 0112 A092 7C00 		sts 124,r10
 583               	.LSM87:
 584 0116 8091 0000 		lds r24,conversion_status
 585 011a 8F5F      		subi r24,lo8(-(1))
 586 011c 8093 0000 		sts conversion_status,r24
 587               	.LBB90:
 588               	.LBB91:
 589               	.LBB92:
 590               	.LBB93:
 591               	.LSM88:
 592 0120 85E0      		ldi r24,lo8(5)
 593               	.LVL0:
 594               	.L29:
 595               	/* #APP */
 596               	 ;  83 "p:/winavr-20100110/lib/gcc/../../avr/include/util/delay_basic.h" 1
 597 0122 8A95      		1: dec r24
 598 0124 01F4      		brne 1b
 599               	 ;  0 "" 2
 600               	.LVL1:
 601               	/* #NOAPP */
 602               	.LBE93:
 603               	.LBE92:
 604               	.LBE91:
 605               	.LBE90:
 606               	.LSM89:
 607 0126 8091 7A00 		lds r24,122
 608               	.LVL2:
 609 012a 8064      		ori r24,lo8(64)
 610 012c 8093 7A00 		sts 122,r24
 611 0130 00C0      		rjmp .L26
 612               	.L16:
 613               	.LSM90:
 614 0132 A090 0000 		lds r10,conversion_status
 615 0136 83E0      		ldi r24,lo8(3)
 616 0138 A816      		cp r10,r24
 617 013a 01F4      		brne .L17
 618               	.LSM91:
 619 013c 0091 7800 		lds r16,120
 620 0140 B090 7900 		lds r11,121
 621 0144 6091 0000 		lds r22,data+12
 622 0148 7091 0000 		lds r23,(data+12)+1
 623 014c 80E0      		ldi r24,lo8(0)
 624 014e 90E0      		ldi r25,hi8(0)
 625 0150 0E94 0000 		call __floatunsisf
 626 0154 2AE9      		ldi r18,lo8(0x3f19999a)
 627 0156 39E9      		ldi r19,hi8(0x3f19999a)
 628 0158 49E1      		ldi r20,hlo8(0x3f19999a)
 629 015a 5FE3      		ldi r21,hhi8(0x3f19999a)
 630 015c 0E94 0000 		call __mulsf3
 631 0160 6B01      		movw r12,r22
 632 0162 7C01      		movw r14,r24
 633 0164 7B2D      		mov r23,r11
 634 0166 60E0      		ldi r22,lo8(0)
 635 0168 10E0      		ldi r17,lo8(0)
 636 016a 602B      		or r22,r16
 637 016c 712B      		or r23,r17
 638 016e 8827      		clr r24
 639 0170 77FD      		sbrc r23,7
 640 0172 8095      		com r24
 641 0174 982F      		mov r25,r24
 642 0176 0E94 0000 		call __floatsisf
 643 017a 2CEC      		ldi r18,lo8(0x3ecccccc)
 644 017c 3CEC      		ldi r19,hi8(0x3ecccccc)
 645 017e 4CEC      		ldi r20,hlo8(0x3ecccccc)
 646 0180 5EE3      		ldi r21,hhi8(0x3ecccccc)
 647 0182 0E94 0000 		call __mulsf3
 648 0186 9B01      		movw r18,r22
 649 0188 AC01      		movw r20,r24
 650 018a C701      		movw r24,r14
 651 018c B601      		movw r22,r12
 652 018e 0E94 0000 		call __addsf3
 653 0192 0E94 0000 		call __fixunssfsi
 654 0196 7093 0000 		sts (data+12)+1,r23
 655 019a 6093 0000 		sts data+12,r22
 656 019e 00C0      		rjmp .L28
 657               	.L17:
 658               	.LSM92:
 659 01a0 A090 0000 		lds r10,conversion_status
 660 01a4 84E0      		ldi r24,lo8(4)
 661 01a6 A816      		cp r10,r24
 662 01a8 01F4      		brne .L18
 663               	.LSM93:
 664 01aa 0091 7800 		lds r16,120
 665 01ae B090 7900 		lds r11,121
 666 01b2 6091 0000 		lds r22,data+14
 667 01b6 7091 0000 		lds r23,(data+14)+1
 668 01ba 80E0      		ldi r24,lo8(0)
 669 01bc 90E0      		ldi r25,hi8(0)
 670 01be 0E94 0000 		call __floatunsisf
 671 01c2 2AE9      		ldi r18,lo8(0x3f19999a)
 672 01c4 39E9      		ldi r19,hi8(0x3f19999a)
 673 01c6 49E1      		ldi r20,hlo8(0x3f19999a)
 674 01c8 5FE3      		ldi r21,hhi8(0x3f19999a)
 675 01ca 0E94 0000 		call __mulsf3
 676 01ce 6B01      		movw r12,r22
 677 01d0 7C01      		movw r14,r24
 678 01d2 7B2D      		mov r23,r11
 679 01d4 60E0      		ldi r22,lo8(0)
 680 01d6 10E0      		ldi r17,lo8(0)
 681 01d8 602B      		or r22,r16
 682 01da 712B      		or r23,r17
 683 01dc 8827      		clr r24
 684 01de 77FD      		sbrc r23,7
 685 01e0 8095      		com r24
 686 01e2 982F      		mov r25,r24
 687 01e4 0E94 0000 		call __floatsisf
 688 01e8 2CEC      		ldi r18,lo8(0x3ecccccc)
 689 01ea 3CEC      		ldi r19,hi8(0x3ecccccc)
 690 01ec 4CEC      		ldi r20,hlo8(0x3ecccccc)
 691 01ee 5EE3      		ldi r21,hhi8(0x3ecccccc)
 692 01f0 0E94 0000 		call __mulsf3
 693 01f4 9B01      		movw r18,r22
 694 01f6 AC01      		movw r20,r24
 695 01f8 C701      		movw r24,r14
 696 01fa B601      		movw r22,r12
 697 01fc 0E94 0000 		call __addsf3
 698 0200 0E94 0000 		call __fixunssfsi
 699 0204 7093 0000 		sts (data+14)+1,r23
 700 0208 6093 0000 		sts data+14,r22
 701 020c 00C0      		rjmp .L28
 702               	.L18:
 703               	.LSM94:
 704 020e A090 0000 		lds r10,conversion_status
 705 0212 85E0      		ldi r24,lo8(5)
 706 0214 A816      		cp r10,r24
 707 0216 01F4      		brne .L19
 708               	.LSM95:
 709 0218 0091 7800 		lds r16,120
 710 021c B090 7900 		lds r11,121
 711 0220 6091 0000 		lds r22,data+16
 712 0224 7091 0000 		lds r23,(data+16)+1
 713 0228 80E0      		ldi r24,lo8(0)
 714 022a 90E0      		ldi r25,hi8(0)
 715 022c 0E94 0000 		call __floatunsisf
 716 0230 2AE9      		ldi r18,lo8(0x3f19999a)
 717 0232 39E9      		ldi r19,hi8(0x3f19999a)
 718 0234 49E1      		ldi r20,hlo8(0x3f19999a)
 719 0236 5FE3      		ldi r21,hhi8(0x3f19999a)
 720 0238 0E94 0000 		call __mulsf3
 721 023c 6B01      		movw r12,r22
 722 023e 7C01      		movw r14,r24
 723 0240 7B2D      		mov r23,r11
 724 0242 60E0      		ldi r22,lo8(0)
 725 0244 10E0      		ldi r17,lo8(0)
 726 0246 602B      		or r22,r16
 727 0248 712B      		or r23,r17
 728 024a 8827      		clr r24
 729 024c 77FD      		sbrc r23,7
 730 024e 8095      		com r24
 731 0250 982F      		mov r25,r24
 732 0252 0E94 0000 		call __floatsisf
 733 0256 2CEC      		ldi r18,lo8(0x3ecccccc)
 734 0258 3CEC      		ldi r19,hi8(0x3ecccccc)
 735 025a 4CEC      		ldi r20,hlo8(0x3ecccccc)
 736 025c 5EE3      		ldi r21,hhi8(0x3ecccccc)
 737 025e 0E94 0000 		call __mulsf3
 738 0262 9B01      		movw r18,r22
 739 0264 AC01      		movw r20,r24
 740 0266 C701      		movw r24,r14
 741 0268 B601      		movw r22,r12
 742 026a 0E94 0000 		call __addsf3
 743 026e 0E94 0000 		call __fixunssfsi
 744 0272 7093 0000 		sts (data+16)+1,r23
 745 0276 6093 0000 		sts data+16,r22
 746               	.LSM96:
 747 027a A092 7C00 		sts 124,r10
 748               	.LSM97:
 749 027e 8091 0000 		lds r24,conversion_status
 750 0282 8F5F      		subi r24,lo8(-(1))
 751 0284 8093 0000 		sts conversion_status,r24
 752               	.LBB94:
 753               	.LBB95:
 754               	.LBB96:
 755               	.LBB97:
 756               	.LSM98:
 757 0288 8A2D      		mov r24,r10
 758               	.LVL3:
 759 028a 00C0      		rjmp .L29
 760               	.LVL4:
 761               	.L19:
 762               	.LBE97:
 763               	.LBE96:
 764               	.LBE95:
 765               	.LBE94:
 766               	.LSM99:
 767 028c A090 0000 		lds r10,conversion_status
 768 0290 86E0      		ldi r24,lo8(6)
 769 0292 A816      		cp r10,r24
 770 0294 01F4      		brne .L20
 771               	.LSM100:
 772 0296 0091 7800 		lds r16,120
 773 029a B090 7900 		lds r11,121
 774 029e 6091 0000 		lds r22,data+2
 775 02a2 7091 0000 		lds r23,(data+2)+1
 776 02a6 80E0      		ldi r24,lo8(0)
 777 02a8 90E0      		ldi r25,hi8(0)
 778 02aa 0E94 0000 		call __floatunsisf
 779 02ae 2AE9      		ldi r18,lo8(0x3f19999a)
 780 02b0 39E9      		ldi r19,hi8(0x3f19999a)
 781 02b2 49E1      		ldi r20,hlo8(0x3f19999a)
 782 02b4 5FE3      		ldi r21,hhi8(0x3f19999a)
 783 02b6 0E94 0000 		call __mulsf3
 784 02ba 6B01      		movw r12,r22
 785 02bc 7C01      		movw r14,r24
 786 02be 7B2D      		mov r23,r11
 787 02c0 60E0      		ldi r22,lo8(0)
 788 02c2 10E0      		ldi r17,lo8(0)
 789 02c4 602B      		or r22,r16
 790 02c6 712B      		or r23,r17
 791 02c8 8827      		clr r24
 792 02ca 77FD      		sbrc r23,7
 793 02cc 8095      		com r24
 794 02ce 982F      		mov r25,r24
 795 02d0 0E94 0000 		call __floatsisf
 796 02d4 2CEC      		ldi r18,lo8(0x3ecccccc)
 797 02d6 3CEC      		ldi r19,hi8(0x3ecccccc)
 798 02d8 4CEC      		ldi r20,hlo8(0x3ecccccc)
 799 02da 5EE3      		ldi r21,hhi8(0x3ecccccc)
 800 02dc 0E94 0000 		call __mulsf3
 801 02e0 9B01      		movw r18,r22
 802 02e2 AC01      		movw r20,r24
 803 02e4 C701      		movw r24,r14
 804 02e6 B601      		movw r22,r12
 805 02e8 0E94 0000 		call __addsf3
 806 02ec 0E94 0000 		call __fixunssfsi
 807 02f0 7093 0000 		sts (data+2)+1,r23
 808 02f4 6093 0000 		sts data+2,r22
 809 02f8 00C0      		rjmp .L28
 810               	.L20:
 811               	.LSM101:
 812 02fa A090 0000 		lds r10,conversion_status
 813 02fe 87E0      		ldi r24,lo8(7)
 814 0300 A816      		cp r10,r24
 815 0302 01F4      		brne .L21
 816               	.LSM102:
 817 0304 0091 7800 		lds r16,120
 818 0308 B090 7900 		lds r11,121
 819 030c 6091 0000 		lds r22,data
 820 0310 7091 0000 		lds r23,(data)+1
 821 0314 80E0      		ldi r24,lo8(0)
 822 0316 90E0      		ldi r25,hi8(0)
 823 0318 0E94 0000 		call __floatunsisf
 824 031c 2AE9      		ldi r18,lo8(0x3f19999a)
 825 031e 39E9      		ldi r19,hi8(0x3f19999a)
 826 0320 49E1      		ldi r20,hlo8(0x3f19999a)
 827 0322 5FE3      		ldi r21,hhi8(0x3f19999a)
 828 0324 0E94 0000 		call __mulsf3
 829 0328 6B01      		movw r12,r22
 830 032a 7C01      		movw r14,r24
 831 032c 7B2D      		mov r23,r11
 832 032e 60E0      		ldi r22,lo8(0)
 833 0330 10E0      		ldi r17,lo8(0)
 834 0332 602B      		or r22,r16
 835 0334 712B      		or r23,r17
 836 0336 8827      		clr r24
 837 0338 77FD      		sbrc r23,7
 838 033a 8095      		com r24
 839 033c 982F      		mov r25,r24
 840 033e 0E94 0000 		call __floatsisf
 841 0342 2CEC      		ldi r18,lo8(0x3ecccccc)
 842 0344 3CEC      		ldi r19,hi8(0x3ecccccc)
 843 0346 4CEC      		ldi r20,hlo8(0x3ecccccc)
 844 0348 5EE3      		ldi r21,hhi8(0x3ecccccc)
 845 034a 0E94 0000 		call __mulsf3
 846 034e 9B01      		movw r18,r22
 847 0350 AC01      		movw r20,r24
 848 0352 C701      		movw r24,r14
 849 0354 B601      		movw r22,r12
 850 0356 0E94 0000 		call __addsf3
 851 035a 0E94 0000 		call __fixunssfsi
 852 035e 7093 0000 		sts (data)+1,r23
 853 0362 6093 0000 		sts data,r22
 854               	.LSM103:
 855 0366 A092 7C00 		sts 124,r10
 856               	.LSM104:
 857 036a 8091 0000 		lds r24,conversion_status
 858 036e 8F5F      		subi r24,lo8(-(1))
 859 0370 8093 0000 		sts conversion_status,r24
 860               	.LBB98:
 861               	.LBB99:
 862               	.LBB100:
 863               	.LBB101:
 864               	.LSM105:
 865 0374 8AE0      		ldi r24,lo8(10)
 866               	.LVL5:
 867 0376 00C0      		rjmp .L29
 868               	.LVL6:
 869               	.L21:
 870               	.LBE101:
 871               	.LBE100:
 872               	.LBE99:
 873               	.LBE98:
 874               	.LSM106:
 875 0378 8091 0000 		lds r24,conversion_status
 876 037c 8830      		cpi r24,lo8(8)
 877 037e 01F0      		breq .+2
 878 0380 00C0      		rjmp .L26
 879               	.LSM107:
 880 0382 8091 0000 		lds r24,thumb_count
 881 0386 8823      		tst r24
 882 0388 01F4      		brne .L22
 883               	.LSM108:
 884 038a 0091 7800 		lds r16,120
 885 038e B090 7900 		lds r11,121
 886 0392 6091 0000 		lds r22,data+30
 887 0396 7091 0000 		lds r23,(data+30)+1
 888 039a 80E0      		ldi r24,lo8(0)
 889 039c 90E0      		ldi r25,hi8(0)
 890 039e 0E94 0000 		call __floatunsisf
 891 03a2 2AE9      		ldi r18,lo8(0x3f19999a)
 892 03a4 39E9      		ldi r19,hi8(0x3f19999a)
 893 03a6 49E1      		ldi r20,hlo8(0x3f19999a)
 894 03a8 5FE3      		ldi r21,hhi8(0x3f19999a)
 895 03aa 0E94 0000 		call __mulsf3
 896 03ae 6B01      		movw r12,r22
 897 03b0 7C01      		movw r14,r24
 898 03b2 7B2D      		mov r23,r11
 899 03b4 60E0      		ldi r22,lo8(0)
 900 03b6 10E0      		ldi r17,lo8(0)
 901 03b8 602B      		or r22,r16
 902 03ba 712B      		or r23,r17
 903 03bc 8827      		clr r24
 904 03be 77FD      		sbrc r23,7
 905 03c0 8095      		com r24
 906 03c2 982F      		mov r25,r24
 907 03c4 0E94 0000 		call __floatsisf
 908 03c8 2CEC      		ldi r18,lo8(0x3ecccccc)
 909 03ca 3CEC      		ldi r19,hi8(0x3ecccccc)
 910 03cc 4CEC      		ldi r20,hlo8(0x3ecccccc)
 911 03ce 5EE3      		ldi r21,hhi8(0x3ecccccc)
 912 03d0 0E94 0000 		call __mulsf3
 913 03d4 9B01      		movw r18,r22
 914 03d6 AC01      		movw r20,r24
 915 03d8 C701      		movw r24,r14
 916 03da B601      		movw r22,r12
 917 03dc 0E94 0000 		call __addsf3
 918 03e0 0E94 0000 		call __fixunssfsi
 919 03e4 7093 0000 		sts (data+30)+1,r23
 920 03e8 6093 0000 		sts data+30,r22
 921               	.LSM109:
 922 03ec 81E0      		ldi r24,lo8(1)
 923 03ee 00C0      		rjmp .L27
 924               	.L22:
 925               	.LSM110:
 926 03f0 8091 0000 		lds r24,thumb_count
 927 03f4 8130      		cpi r24,lo8(1)
 928 03f6 01F4      		brne .L24
 929               	.LSM111:
 930 03f8 0091 7800 		lds r16,120
 931 03fc B090 7900 		lds r11,121
 932 0400 6091 0000 		lds r22,data+28
 933 0404 7091 0000 		lds r23,(data+28)+1
 934 0408 80E0      		ldi r24,lo8(0)
 935 040a 90E0      		ldi r25,hi8(0)
 936 040c 0E94 0000 		call __floatunsisf
 937 0410 2AE9      		ldi r18,lo8(0x3f19999a)
 938 0412 39E9      		ldi r19,hi8(0x3f19999a)
 939 0414 49E1      		ldi r20,hlo8(0x3f19999a)
 940 0416 5FE3      		ldi r21,hhi8(0x3f19999a)
 941 0418 0E94 0000 		call __mulsf3
 942 041c 6B01      		movw r12,r22
 943 041e 7C01      		movw r14,r24
 944 0420 7B2D      		mov r23,r11
 945 0422 60E0      		ldi r22,lo8(0)
 946 0424 10E0      		ldi r17,lo8(0)
 947 0426 602B      		or r22,r16
 948 0428 712B      		or r23,r17
 949 042a 8827      		clr r24
 950 042c 77FD      		sbrc r23,7
 951 042e 8095      		com r24
 952 0430 982F      		mov r25,r24
 953 0432 0E94 0000 		call __floatsisf
 954 0436 2CEC      		ldi r18,lo8(0x3ecccccc)
 955 0438 3CEC      		ldi r19,hi8(0x3ecccccc)
 956 043a 4CEC      		ldi r20,hlo8(0x3ecccccc)
 957 043c 5EE3      		ldi r21,hhi8(0x3ecccccc)
 958 043e 0E94 0000 		call __mulsf3
 959 0442 9B01      		movw r18,r22
 960 0444 AC01      		movw r20,r24
 961 0446 C701      		movw r24,r14
 962 0448 B601      		movw r22,r12
 963 044a 0E94 0000 		call __addsf3
 964 044e 0E94 0000 		call __fixunssfsi
 965 0452 7093 0000 		sts (data+28)+1,r23
 966 0456 6093 0000 		sts data+28,r22
 967               	.LSM112:
 968 045a 82E2      		ldi r24,lo8(34)
 969               	.L27:
 970 045c 8EB9      		out 46-32,r24
 971               	.LSM113:
 972 045e 8091 0000 		lds r24,thumb_count
 973 0462 8F5F      		subi r24,lo8(-(1))
 974 0464 8093 0000 		sts thumb_count,r24
 975 0468 00C0      		rjmp .L23
 976               	.L24:
 977               	.LSM114:
 978 046a 8091 0000 		lds r24,thumb_count
 979 046e 8230      		cpi r24,lo8(2)
 980 0470 01F4      		brne .L25
 981               	.LSM115:
 982 0472 0091 7800 		lds r16,120
 983 0476 B090 7900 		lds r11,121
 984 047a 6091 0000 		lds r22,data+24
 985 047e 7091 0000 		lds r23,(data+24)+1
 986 0482 80E0      		ldi r24,lo8(0)
 987 0484 90E0      		ldi r25,hi8(0)
 988 0486 0E94 0000 		call __floatunsisf
 989 048a 2AE9      		ldi r18,lo8(0x3f19999a)
 990 048c 39E9      		ldi r19,hi8(0x3f19999a)
 991 048e 49E1      		ldi r20,hlo8(0x3f19999a)
 992 0490 5FE3      		ldi r21,hhi8(0x3f19999a)
 993 0492 0E94 0000 		call __mulsf3
 994 0496 6B01      		movw r12,r22
 995 0498 7C01      		movw r14,r24
 996 049a 7B2D      		mov r23,r11
 997 049c 60E0      		ldi r22,lo8(0)
 998 049e 10E0      		ldi r17,lo8(0)
 999 04a0 602B      		or r22,r16
 1000 04a2 712B      		or r23,r17
 1001 04a4 8827      		clr r24
 1002 04a6 77FD      		sbrc r23,7
 1003 04a8 8095      		com r24
 1004 04aa 982F      		mov r25,r24
 1005 04ac 0E94 0000 		call __floatsisf
 1006 04b0 2CEC      		ldi r18,lo8(0x3ecccccc)
 1007 04b2 3CEC      		ldi r19,hi8(0x3ecccccc)
 1008 04b4 4CEC      		ldi r20,hlo8(0x3ecccccc)
 1009 04b6 5EE3      		ldi r21,hhi8(0x3ecccccc)
 1010 04b8 0E94 0000 		call __mulsf3
 1011 04bc 9B01      		movw r18,r22
 1012 04be AC01      		movw r20,r24
 1013 04c0 C701      		movw r24,r14
 1014 04c2 B601      		movw r22,r12
 1015 04c4 0E94 0000 		call __addsf3
 1016 04c8 0E94 0000 		call __fixunssfsi
 1017 04cc 7093 0000 		sts (data+24)+1,r23
 1018 04d0 6093 0000 		sts data+24,r22
 1019               	.LSM116:
 1020 04d4 83E2      		ldi r24,lo8(35)
 1021 04d6 00C0      		rjmp .L27
 1022               	.L25:
 1023               	.LSM117:
 1024 04d8 8091 0000 		lds r24,thumb_count
 1025 04dc 8330      		cpi r24,lo8(3)
 1026 04de 01F4      		brne .L23
 1027               	.LSM118:
 1028 04e0 0091 7800 		lds r16,120
 1029 04e4 B090 7900 		lds r11,121
 1030 04e8 6091 0000 		lds r22,data+26
 1031 04ec 7091 0000 		lds r23,(data+26)+1
 1032 04f0 80E0      		ldi r24,lo8(0)
 1033 04f2 90E0      		ldi r25,hi8(0)
 1034 04f4 0E94 0000 		call __floatunsisf
 1035 04f8 2AE9      		ldi r18,lo8(0x3f19999a)
 1036 04fa 39E9      		ldi r19,hi8(0x3f19999a)
 1037 04fc 49E1      		ldi r20,hlo8(0x3f19999a)
 1038 04fe 5FE3      		ldi r21,hhi8(0x3f19999a)
 1039 0500 0E94 0000 		call __mulsf3
 1040 0504 6B01      		movw r12,r22
 1041 0506 7C01      		movw r14,r24
 1042 0508 7B2D      		mov r23,r11
 1043 050a 60E0      		ldi r22,lo8(0)
 1044 050c 10E0      		ldi r17,lo8(0)
 1045 050e 602B      		or r22,r16
 1046 0510 712B      		or r23,r17
 1047 0512 8827      		clr r24
 1048 0514 77FD      		sbrc r23,7
 1049 0516 8095      		com r24
 1050 0518 982F      		mov r25,r24
 1051 051a 0E94 0000 		call __floatsisf
 1052 051e 2CEC      		ldi r18,lo8(0x3ecccccc)
 1053 0520 3CEC      		ldi r19,hi8(0x3ecccccc)
 1054 0522 4CEC      		ldi r20,hlo8(0x3ecccccc)
 1055 0524 5EE3      		ldi r21,hhi8(0x3ecccccc)
 1056 0526 0E94 0000 		call __mulsf3
 1057 052a 9B01      		movw r18,r22
 1058 052c AC01      		movw r20,r24
 1059 052e C701      		movw r24,r14
 1060 0530 B601      		movw r22,r12
 1061 0532 0E94 0000 		call __addsf3
 1062 0536 0E94 0000 		call __fixunssfsi
 1063 053a 7093 0000 		sts (data+26)+1,r23
 1064 053e 6093 0000 		sts data+26,r22
 1065               	.LSM119:
 1066 0542 1EB8      		out 46-32,__zero_reg__
 1067               	.LSM120:
 1068 0544 1092 0000 		sts thumb_count,__zero_reg__
 1069               	.L23:
 1070               	.LSM121:
 1071 0548 1092 7C00 		sts 124,__zero_reg__
 1072               	.LSM122:
 1073 054c 1092 0000 		sts conversion_status,__zero_reg__
 1074               	.L26:
 1075               	/* epilogue start */
 1076               	.LSM123:
 1077 0550 FF91      		pop r31
 1078 0552 EF91      		pop r30
 1079 0554 BF91      		pop r27
 1080 0556 AF91      		pop r26
 1081 0558 9F91      		pop r25
 1082 055a 8F91      		pop r24
 1083 055c 7F91      		pop r23
 1084 055e 6F91      		pop r22
 1085 0560 5F91      		pop r21
 1086 0562 4F91      		pop r20
 1087 0564 3F91      		pop r19
 1088 0566 2F91      		pop r18
 1089 0568 1F91      		pop r17
 1090 056a 0F91      		pop r16
 1091 056c FF90      		pop r15
 1092 056e EF90      		pop r14
 1093 0570 DF90      		pop r13
 1094 0572 CF90      		pop r12
 1095 0574 BF90      		pop r11
 1096 0576 AF90      		pop r10
 1097 0578 0F90      		pop r0
 1098 057a 0BBE      		out 91-32,r0
 1099 057c 0F90      		pop r0
 1100 057e 0FBE      		out __SREG__,r0
 1101 0580 0F90      		pop r0
 1102 0582 1F90      		pop __zero_reg__
 1103 0584 1895      		reti
 1104               	.LFE10:
 1106               		.section	.text.setupHardware,"ax",@progbits
 1107               	.global	setupHardware
 1109               	setupHardware:
 1110               	.LFB8:
 1111               	.LSM124:
 1112               	/* prologue: function */
 1113               	/* frame size = 0 */
 1114               	.LSM125:
 1115 0000 80E8      		ldi r24,lo8(-128)
 1116 0002 8093 6100 		sts 97,r24
 1117 0006 1092 6100 		sts 97,__zero_reg__
 1118               	.LSM126:
 1119 000a 1AB8      		out 42-32,__zero_reg__
 1120               	.LSM127:
 1121 000c 9FEF      		ldi r25,lo8(-1)
 1122 000e 9BB9      		out 43-32,r25
 1123               	.LSM128:
 1124 0010 17B8      		out 39-32,__zero_reg__
 1125               	.LSM129:
 1126 0012 98B9      		out 40-32,r25
 1127               	.LSM130:
 1128 0014 14B8      		out 36-32,__zero_reg__
 1129               	.LSM131:
 1130 0016 95B9      		out 37-32,r25
 1131               	.LSM132:
 1132 0018 11B8      		out 33-32,__zero_reg__
 1133               	.LSM133:
 1134 001a 92B9      		out 34-32,r25
 1135               	.LSM134:
 1136 001c 83E2      		ldi r24,lo8(35)
 1137 001e 8DB9      		out 45-32,r24
 1138               	.LSM135:
 1139 0020 80E2      		ldi r24,lo8(32)
 1140 0022 8EB9      		out 46-32,r24
 1141               	.LSM136:
 1142 0024 1092 7C00 		sts 124,__zero_reg__
 1143               	.LSM137:
 1144 0028 8FE8      		ldi r24,lo8(-113)
 1145 002a 8093 7A00 		sts 122,r24
 1146               	.LSM138:
 1147 002e 9093 7E00 		sts 126,r25
 1148               	.LSM139:
 1149 0032 0E94 0000 		call usb_init
 1150               	.L31:
 1151               	.LSM140:
 1152 0036 0E94 0000 		call usb_configured
 1153 003a 8823      		tst r24
 1154 003c 01F0      		breq .L31
 1155 003e 80E1      		ldi r24,lo8(10000)
 1156 0040 97E2      		ldi r25,hi8(10000)
 1157               	.LVL7:
 1158               	.LBB102:
 1159               	.LBB103:
 1160               	.LBB104:
 1161               	.LBB105:
 1162               	.LSM141:
 1163 0042 20E9      		ldi r18,lo8(400)
 1164 0044 31E0      		ldi r19,hi8(400)
 1165               	.L32:
 1166 0046 F901      		movw r30,r18
 1167               	.LVL8:
 1168               	/* #APP */
 1169               	 ;  105 "p:/winavr-20100110/lib/gcc/../../avr/include/util/delay_basic.h" 1
 1170 0048 3197      		1: sbiw r30,1
 1171 004a 01F4      		brne 1b
 1172               	 ;  0 "" 2
 1173               	/* #NOAPP */
 1174               	.LBE105:
 1175               	.LBE104:
 1176               	.LSM142:
 1177 004c 0197      		sbiw r24,1
 1178               	.LSM143:
 1179 004e 01F4      		brne .L32
 1180               	/* epilogue start */
 1181               	.LBE103:
 1182               	.LBE102:
 1183               	.LSM144:
 1184 0050 0895      		ret
 1185               	.LFE8:
 1187               		.section	.text.main,"ax",@progbits
 1188               	.global	main
 1190               	main:
 1191               	.LFB6:
 1192               	.LSM145:
 1193 0000 BF92      		push r11
 1194 0002 CF92      		push r12
 1195 0004 DF92      		push r13
 1196 0006 EF92      		push r14
 1197 0008 FF92      		push r15
 1198 000a 0F93      		push r16
 1199 000c 1F93      		push r17
 1200 000e CF93      		push r28
 1201 0010 DF93      		push r29
 1202               	/* prologue: function */
 1203               	/* frame size = 0 */
 1204               	.LSM146:
 1205 0012 0E94 0000 		call setupHardware
 1206               	.LSM147:
 1207               	/* #APP */
 1208               	 ;  31 "gun_controller_uc.c" 1
 1209 0016 7894      		sei
 1210               	 ;  0 "" 2
 1211               	.LSM148:
 1212               	/* #NOAPP */
 1213 0018 8091 7A00 		lds r24,122
 1214 001c 8064      		ori r24,lo8(64)
 1215 001e 8093 7A00 		sts 122,r24
 1216               	.LSM149:
 1217 0022 81E0      		ldi r24,lo8(1)
 1218 0024 8093 0000 		sts conversion_status,r24
 1219               	.L37:
 1220               	.LSM150:
 1221 0028 0E94 0000 		call usb_serial_get_control
 1222 002c 80FF      		sbrs r24,0
 1223 002e 00C0      		rjmp .L37
 1224               	.LSM151:
 1225 0030 0E94 0000 		call usb_serial_flush_input
 1226               	.LSM152:
 1227 0034 BB24      		clr r11
 1228 0036 B394      		inc r11
 1229               	.L44:
 1230               	.LSM153:
 1231 0038 0E94 0000 		call read_buttons
 1232               	.LSM154:
 1233 003c 8091 0000 		lds r24,conversion_status
 1234 0040 8823      		tst r24
 1235 0042 01F0      		breq .+2
 1236 0044 00C0      		rjmp .L38
 1237 0046 0E94 0000 		call usb_serial_available
 1238 004a 8823      		tst r24
 1239 004c 01F4      		brne .+2
 1240 004e 00C0      		rjmp .L38
 1241               	.LSM155:
 1242 0050 0E94 0000 		call usb_serial_getchar
 1243 0054 0597      		sbiw r24,5
 1244 0056 01F4      		brne .L44
 1245               	.LSM156:
 1246 0058 4091 0000 		lds r20,digital_c
 1247 005c 4068      		ori r20,lo8(-128)
 1248 005e 4093 0000 		sts digital_c,r20
 1249               	.LSM157:
 1250 0062 2091 0000 		lds r18,digital_d
 1251 0066 206C      		ori r18,lo8(-64)
 1252 0068 2093 0000 		sts digital_d,r18
 1253               	.LSM158:
 1254 006c D090 0000 		lds r13,digital_a
 1255 0070 CC24      		clr r12
 1256 0072 8091 0000 		lds r24,digital_b
 1257 0076 90E0      		ldi r25,lo8(0)
 1258 0078 8C29      		or r24,r12
 1259 007a 9D29      		or r25,r13
 1260 007c 9093 0000 		sts (data+32)+1,r25
 1261 0080 8093 0000 		sts data+32,r24
 1262               	.LSM159:
 1263 0084 F42E      		mov r15,r20
 1264 0086 EE24      		clr r14
 1265 0088 30E0      		ldi r19,lo8(0)
 1266 008a 2E29      		or r18,r14
 1267 008c 3F29      		or r19,r15
 1268 008e 3093 0000 		sts (data+34)+1,r19
 1269 0092 2093 0000 		sts data+34,r18
 1270               	.LSM160:
 1271 0096 1091 0000 		lds r17,digital_e
 1272 009a 00E0      		ldi r16,lo8(0)
 1273 009c 8091 0000 		lds r24,digital_f
 1274 00a0 90E0      		ldi r25,lo8(0)
 1275 00a2 802B      		or r24,r16
 1276 00a4 912B      		or r25,r17
 1277 00a6 9093 0000 		sts (data+36)+1,r25
 1278 00aa 8093 0000 		sts data+36,r24
 1279               	.LSM161:
 1280 00ae D091 0000 		lds r29,digital_g
 1281 00b2 C0E0      		ldi r28,lo8(0)
 1282 00b4 8091 0000 		lds r24,digital_h
 1283 00b8 90E0      		ldi r25,lo8(0)
 1284 00ba 8C2B      		or r24,r28
 1285 00bc 9D2B      		or r25,r29
 1286 00be 9093 0000 		sts (data+38)+1,r25
 1287 00c2 8093 0000 		sts data+38,r24
 1288               	.LSM162:
 1289 00c6 0E94 0000 		call packData
 1290               	.LSM163:
 1291 00ca 80E0      		ldi r24,lo8(buffer)
 1292 00cc 90E0      		ldi r25,hi8(buffer)
 1293 00ce 60E4      		ldi r22,lo8(64)
 1294 00d0 70E0      		ldi r23,hi8(64)
 1295 00d2 0E94 0000 		call usb_serial_write
 1296 00d6 00C0      		rjmp .L45
 1297               	.L38:
 1298               	.LSM164:
 1299 00d8 8091 0000 		lds r24,conversion_status
 1300 00dc 8823      		tst r24
 1301 00de 01F0      		breq .+2
 1302 00e0 00C0      		rjmp .L44
 1303               	.L45:
 1304               	.LSM165:
 1305 00e2 8091 7A00 		lds r24,122
 1306 00e6 8064      		ori r24,lo8(64)
 1307 00e8 8093 7A00 		sts 122,r24
 1308               	.LSM166:
 1309 00ec B092 0000 		sts conversion_status,r11
 1310 00f0 00C0      		rjmp .L44
 1311               	.LFE6:
 1313               	.global	conversion_status
 1314               	.global	conversion_status
 1315               		.section .bss
 1318               	conversion_status:
 1319 0000 00        		.skip 1,0
 1320               	.global	thumb_count
 1321               	.global	thumb_count
 1324               	thumb_count:
 1325 0001 00        		.skip 1,0
 1326               	.global	digital_a
 1327               		.data
 1330               	digital_a:
 1331 0000 FF        		.byte	-1
 1332               	.global	digital_b
 1335               	digital_b:
 1336 0001 FF        		.byte	-1
 1337               	.global	digital_c
 1340               	digital_c:
 1341 0002 FF        		.byte	-1
 1342               	.global	digital_d
 1345               	digital_d:
 1346 0003 FF        		.byte	-1
 1347               	.global	digital_e
 1350               	digital_e:
 1351 0004 FF        		.byte	-1
 1352               	.global	digital_f
 1355               	digital_f:
 1356 0005 FF        		.byte	-1
 1357               	.global	digital_g
 1360               	digital_g:
 1361 0006 FF        		.byte	-1
 1362               	.global	digital_h
 1365               	digital_h:
 1366 0007 FF        		.byte	-1
 1367               		.lcomm old_c.1716,8
 1368               		.lcomm flag_c.1715,8
 1369               		.lcomm old_d.1713,8
 1370               		.lcomm flag_d.1712,8
 1371               		.comm data,40,1
 1372               		.comm buffer,64,1
 1429               	.Letext0:
DEFINED SYMBOLS
                            *ABS*:00000000 gun_controller_uc.c
C:\Users\James\AppData\Local\Temp/ccDSEnfF.s:2      *ABS*:0000003f __SREG__
C:\Users\James\AppData\Local\Temp/ccDSEnfF.s:3      *ABS*:0000003e __SP_H__
C:\Users\James\AppData\Local\Temp/ccDSEnfF.s:4      *ABS*:0000003d __SP_L__
C:\Users\James\AppData\Local\Temp/ccDSEnfF.s:5      *ABS*:00000034 __CCP__
C:\Users\James\AppData\Local\Temp/ccDSEnfF.s:6      *ABS*:00000000 __tmp_reg__
C:\Users\James\AppData\Local\Temp/ccDSEnfF.s:7      *ABS*:00000001 __zero_reg__
C:\Users\James\AppData\Local\Temp/ccDSEnfF.s:19     .text.packData:00000000 packData
                            *COM*:00000040 buffer
                            *COM*:00000028 data
C:\Users\James\AppData\Local\Temp/ccDSEnfF.s:231    .text.read_buttons:00000000 read_buttons
C:\Users\James\AppData\Local\Temp/ccDSEnfF.s:1345   .data:00000003 digital_d
C:\Users\James\AppData\Local\Temp/ccDSEnfF.s:1340   .data:00000002 digital_c
C:\Users\James\AppData\Local\Temp/ccDSEnfF.s:1368   .bss:00000012 old_d.1713
C:\Users\James\AppData\Local\Temp/ccDSEnfF.s:1367   .bss:0000000a flag_c.1715
                             .bss:00000002 old_c.1716
C:\Users\James\AppData\Local\Temp/ccDSEnfF.s:1369   .bss:0000001a flag_d.1712
C:\Users\James\AppData\Local\Temp/ccDSEnfF.s:459    .text.__vector_29:00000000 __vector_29
C:\Users\James\AppData\Local\Temp/ccDSEnfF.s:1318   .bss:00000000 conversion_status
C:\Users\James\AppData\Local\Temp/ccDSEnfF.s:1324   .bss:00000001 thumb_count
C:\Users\James\AppData\Local\Temp/ccDSEnfF.s:1109   .text.setupHardware:00000000 setupHardware
C:\Users\James\AppData\Local\Temp/ccDSEnfF.s:1190   .text.main:00000000 main
C:\Users\James\AppData\Local\Temp/ccDSEnfF.s:1330   .data:00000000 digital_a
C:\Users\James\AppData\Local\Temp/ccDSEnfF.s:1335   .data:00000001 digital_b
C:\Users\James\AppData\Local\Temp/ccDSEnfF.s:1350   .data:00000004 digital_e
C:\Users\James\AppData\Local\Temp/ccDSEnfF.s:1355   .data:00000005 digital_f
C:\Users\James\AppData\Local\Temp/ccDSEnfF.s:1360   .data:00000006 digital_g
C:\Users\James\AppData\Local\Temp/ccDSEnfF.s:1365   .data:00000007 digital_h

UNDEFINED SYMBOLS
__floatsisf
__mulsf3
__fixunssfsi
__floatunsisf
__addsf3
usb_init
usb_configured
usb_serial_get_control
usb_serial_flush_input
usb_serial_available
usb_serial_getchar
usb_serial_write
__do_copy_data
__do_clear_bss
